(lp0
(lp1
(lp2
I4
aS'+'
p3
aI6
ag3
aI4
aI14
aa(lp4
I0
aS'-'
p5
aI0
ag3
aI7
aI7
aa(lp6
I7
ag3
aI6
ag3
aI4
aI17
aa(lp7
I9
ag5
aI8
ag3
aI2
aI3
aa(lp8
I1
ag3
aI0
ag5
aI9
aI-8
aa(lp9
I2
ag3
aI5
ag5
aI3
aI4
aaa(lp10
(lp11
I3
ag3
aI9
ag3
aI6
aI18
aa(lp12
I6
ag5
aI8
ag5
aI7
aI-9
aa(lp13
I6
ag3
aI2
ag5
aI3
aI5
aa(lp14
I3
ag5
aI8
ag5
aI0
aI-5
aa(lp15
I5
ag3
aI4
ag3
aI9
aI18
aa(lp16
I1
ag5
aI3
ag3
aI5
aI3
aaa(lp17
(lp18
I2
ag5
aI4
ag3
aI5
aI3
aa(lp19
I4
ag5
aI6
ag3
aI0
aI-2
aa(lp20
I1
ag3
aI2
ag3
aI3
aI6
aa(lp21
I5
ag5
aI8
ag3
aI1
aI-2
aa(lp22
I7
ag3
aI9
ag3
aI3
aI19
aa(lp23
I9
ag5
aI1
ag3
aI2
aI10
aaa(lp24
(lp25
I0
ag5
aI1
ag5
aI7
aI-8
aa(lp26
I7
ag3
aI3
ag5
aI8
aI2
aa(lp27
I2
ag5
aI1
ag3
aI0
aI1
aa(lp28
I4
ag3
aI2
ag5
aI7
aI-1
aa(lp29
I2
ag3
aI2
ag5
aI6
aI-2
aa(lp30
I1
ag3
aI3
ag3
aI5
aI9
aaa(lp31
(lp32
I2
ag3
aI5
ag5
aI9
aI-2
aa(lp33
I2
ag3
aI4
ag3
aI7
aI13
aa(lp34
I7
ag5
aI0
ag3
aI5
aI12
aa(lp35
I9
ag3
aI2
ag3
aI8
aI19
aa(lp36
I3
ag5
aI6
ag3
aI7
aI4
aa(lp37
I4
ag5
aI3
ag5
aI0
aI1
aaa(lp38
(lp39
I5
ag5
aI1
ag5
aI8
aI-4
aa(lp40
I4
ag3
aI0
ag3
aI2
aI6
aa(lp41
I1
ag3
aI3
ag5
aI1
aI3
aa(lp42
I9
ag5
aI9
ag3
aI5
aI5
aa(lp43
I6
ag3
aI5
ag3
aI1
aI12
aa(lp44
I3
ag3
aI3
ag3
aI7
aI13
aaa(lp45
(lp46
I0
ag3
aI8
ag5
aI0
aI8
aa(lp47
I3
ag5
aI1
ag3
aI3
aI5
aa(lp48
I2
ag3
aI2
ag3
aI8
aI12
aa(lp49
I9
ag5
aI9
ag3
aI6
aI6
aa(lp50
I4
ag3
aI3
ag3
aI5
aI12
aa(lp51
I7
ag3
aI6
ag5
aI1
aI12
aaa.