(lp0
(lp1
ccopy_reg
_reconstructor
p2
(cimglib
GridPoint
p3
c__builtin__
object
p4
Ntp5
Rp6
(dp7
S'y'
p8
I0
sS'x'
p9
I13
sbag2
(g3
g4
Ntp10
Rp11
(dp12
g8
I1
sg9
I12
sbag2
(g3
g4
Ntp13
Rp14
(dp15
g8
I0
sg9
I11
sbag2
(g3
g4
Ntp16
Rp17
(dp18
g8
I1
sg9
I10
sbag2
(g3
g4
Ntp19
Rp20
(dp21
g8
I0
sg9
I9
sbag2
(g3
g4
Ntp22
Rp23
(dp24
g8
I1
sg9
I8
sbag2
(g3
g4
Ntp25
Rp26
(dp27
g8
I0
sg9
I7
sbag2
(g3
g4
Ntp28
Rp29
(dp30
g8
I0
sg9
I6
sbag2
(g3
g4
Ntp31
Rp32
(dp33
g8
I0
sg9
I5
sbag2
(g3
g4
Ntp34
Rp35
(dp36
g8
I1
sg9
I4
sbag2
(g3
g4
Ntp37
Rp38
(dp39
g8
I0
sg9
I3
sbag2
(g3
g4
Ntp40
Rp41
(dp42
g8
I0
sg9
I2
sbag2
(g3
g4
Ntp43
Rp44
(dp45
g8
I0
sg9
I1
sbag2
(g3
g4
Ntp46
Rp47
(dp48
g8
I1
sg9
I0
sbaa(lp49
g2
(g3
g4
Ntp50
Rp51
(dp52
g8
I1
sg9
I13
sbag2
(g3
g4
Ntp53
Rp54
(dp55
g8
I2
sg9
I12
sbag2
(g3
g4
Ntp56
Rp57
(dp58
g8
I3
sg9
I11
sbag2
(g3
g4
Ntp59
Rp60
(dp61
g8
I4
sg9
I10
sbag2
(g3
g4
Ntp62
Rp63
(dp64
g8
I4
sg9
I9
sbag2
(g3
g4
Ntp65
Rp66
(dp67
g8
I4
sg9
I8
sbag2
(g3
g4
Ntp68
Rp69
(dp70
g8
I3
sg9
I7
sbag2
(g3
g4
Ntp71
Rp72
(dp73
g8
I2
sg9
I6
sbag2
(g3
g4
Ntp74
Rp75
(dp76
g8
I3
sg9
I5
sbag2
(g3
g4
Ntp77
Rp78
(dp79
g8
I4
sg9
I4
sbag2
(g3
g4
Ntp80
Rp81
(dp82
g8
I4
sg9
I3
sbag2
(g3
g4
Ntp83
Rp84
(dp85
g8
I4
sg9
I2
sbag2
(g3
g4
Ntp86
Rp87
(dp88
g8
I4
sg9
I1
sbag2
(g3
g4
Ntp89
Rp90
(dp91
g8
I4
sg9
I0
sbaa(lp92
g2
(g3
g4
Ntp93
Rp94
(dp95
g8
I1
sg9
I13
sbag2
(g3
g4
Ntp96
Rp97
(dp98
g8
I2
sg9
I12
sbag2
(g3
g4
Ntp99
Rp100
(dp101
g8
I1
sg9
I11
sbag2
(g3
g4
Ntp102
Rp103
(dp104
g8
I0
sg9
I10
sbag2
(g3
g4
Ntp105
Rp106
(dp107
g8
I0
sg9
I9
sbag2
(g3
g4
Ntp108
Rp109
(dp110
g8
I0
sg9
I8
sbag2
(g3
g4
Ntp111
Rp112
(dp113
g8
I0
sg9
I7
sbag2
(g3
g4
Ntp114
Rp115
(dp116
g8
I1
sg9
I6
sbag2
(g3
g4
Ntp117
Rp118
(dp119
g8
I0
sg9
I5
sbag2
(g3
g4
Ntp120
Rp121
(dp122
g8
I1
sg9
I4
sbag2
(g3
g4
Ntp123
Rp124
(dp125
g8
I2
sg9
I3
sbag2
(g3
g4
Ntp126
Rp127
(dp128
g8
I1
sg9
I2
sbag2
(g3
g4
Ntp129
Rp130
(dp131
g8
I1
sg9
I1
sbag2
(g3
g4
Ntp132
Rp133
(dp134
g8
I0
sg9
I0
sbaa(lp135
g2
(g3
g4
Ntp136
Rp137
(dp138
g8
I0
sg9
I13
sbag2
(g3
g4
Ntp139
Rp140
(dp141
g8
I0
sg9
I12
sbag2
(g3
g4
Ntp142
Rp143
(dp144
g8
I0
sg9
I11
sbag2
(g3
g4
Ntp145
Rp146
(dp147
g8
I0
sg9
I10
sbag2
(g3
g4
Ntp148
Rp149
(dp150
g8
I1
sg9
I9
sbag2
(g3
g4
Ntp151
Rp152
(dp153
g8
I1
sg9
I8
sbag2
(g3
g4
Ntp154
Rp155
(dp156
g8
I2
sg9
I7
sbag2
(g3
g4
Ntp157
Rp158
(dp159
g8
I3
sg9
I6
sbag2
(g3
g4
Ntp160
Rp161
(dp162
g8
I4
sg9
I5
sbag2
(g3
g4
Ntp163
Rp164
(dp165
g8
I4
sg9
I4
sbag2
(g3
g4
Ntp166
Rp167
(dp168
g8
I5
sg9
I3
sbag2
(g3
g4
Ntp169
Rp170
(dp171
g8
I6
sg9
I2
sbag2
(g3
g4
Ntp172
Rp173
(dp174
g8
I7
sg9
I1
sbag2
(g3
g4
Ntp175
Rp176
(dp177
g8
I7
sg9
I0
sbaa(lp178
g2
(g3
g4
Ntp179
Rp180
(dp181
g8
I0
sg9
I13
sbag2
(g3
g4
Ntp182
Rp183
(dp184
g8
I0
sg9
I12
sbag2
(g3
g4
Ntp185
Rp186
(dp187
g8
I1
sg9
I11
sbag2
(g3
g4
Ntp188
Rp189
(dp190
g8
I0
sg9
I10
sbag2
(g3
g4
Ntp191
Rp192
(dp193
g8
I1
sg9
I9
sbag2
(g3
g4
Ntp194
Rp195
(dp196
g8
I0
sg9
I8
sbag2
(g3
g4
Ntp197
Rp198
(dp199
g8
I0
sg9
I7
sbag2
(g3
g4
Ntp200
Rp201
(dp202
g8
I1
sg9
I6
sbag2
(g3
g4
Ntp203
Rp204
(dp205
g8
I2
sg9
I5
sbag2
(g3
g4
Ntp206
Rp207
(dp208
g8
I3
sg9
I4
sbag2
(g3
g4
Ntp209
Rp210
(dp211
g8
I4
sg9
I3
sbag2
(g3
g4
Ntp212
Rp213
(dp214
g8
I3
sg9
I2
sbag2
(g3
g4
Ntp215
Rp216
(dp217
g8
I3
sg9
I1
sbag2
(g3
g4
Ntp218
Rp219
(dp220
g8
I3
sg9
I0
sbaa(lp221
g2
(g3
g4
Ntp222
Rp223
(dp224
g8
I2
sg9
I13
sbag2
(g3
g4
Ntp225
Rp226
(dp227
g8
I2
sg9
I12
sbag2
(g3
g4
Ntp228
Rp229
(dp230
g8
I3
sg9
I11
sbag2
(g3
g4
Ntp231
Rp232
(dp233
g8
I3
sg9
I10
sbag2
(g3
g4
Ntp234
Rp235
(dp236
g8
I4
sg9
I9
sbag2
(g3
g4
Ntp237
Rp238
(dp239
g8
I5
sg9
I8
sbag2
(g3
g4
Ntp240
Rp241
(dp242
g8
I6
sg9
I7
sbag2
(g3
g4
Ntp243
Rp244
(dp245
g8
I5
sg9
I6
sbag2
(g3
g4
Ntp246
Rp247
(dp248
g8
I5
sg9
I5
sbag2
(g3
g4
Ntp249
Rp250
(dp251
g8
I6
sg9
I4
sbag2
(g3
g4
Ntp252
Rp253
(dp254
g8
I6
sg9
I3
sbag2
(g3
g4
Ntp255
Rp256
(dp257
g8
I7
sg9
I2
sbag2
(g3
g4
Ntp258
Rp259
(dp260
g8
I6
sg9
I1
sbag2
(g3
g4
Ntp261
Rp262
(dp263
g8
I7
sg9
I0
sbaa(lp264
a.